(dp0
S'sph'
p1
F0.2715770996297448
sS'p'
p2
F0.0
sS's'
p3
F0.39269908169872414
sS't'
p4
F0.39269908169872414
sS'y'
p5
F0.14610704315101872
sS'x'
p6
F0.19941505046861127
sS'z'
p7
F0.22829461936611783
s.